target datalayout = "e-m:e-p270:32:32-p271:32:32-p272:64:64-i64:64-i128:128-f80:128-n8:16:32:64-S128"
target triple = "x86_64-pc-linux-gnu"

%struct.ScanKeyData = type { i32, i16, i16, i32, i32, %struct.FmgrInfo, i64 }
%struct.FmgrInfo = type { ptr, i32, i16, i8, i8, i8, ptr, ptr, ptr }
%struct.HeapTupleData = type { i32, %struct.ItemPointerData, i32, ptr }
%struct.ItemPointerData = type { %struct.BlockIdData, i16 }
%struct.BlockIdData = type { i16, i16 }
%struct.HeapTupleHeaderData = type { %union.anon.1, %struct.ItemPointerData, i16, i16, i8, [0 x i8] }
%union.anon.1 = type { %struct.HeapTupleFields }
%struct.HeapTupleFields = type { i32, i32, %union.anon.2 }
%union.anon.2 = type { i32 }
%struct.RelationData = type { %struct.RelFileLocator, ptr, i32, i32, i8, i8, i8, i8, i8, i32, i32, i32, i32, ptr, ptr, i32, %struct.LockInfoData, ptr, ptr, ptr, ptr, ptr, i8, ptr, ptr, ptr, ptr, ptr, ptr, i32, ptr, i8, ptr, ptr, i32, i8, i32, ptr, i8, ptr, ptr, ptr, ptr, ptr, ptr, ptr, i32, ptr, ptr, ptr, ptr, ptr, ptr, ptr, ptr, ptr, ptr, ptr, ptr, ptr, ptr, ptr, ptr, ptr, ptr, ptr, i32, i8, ptr }
%struct.RelFileLocator = type { i32, i32, i32 }
%struct.LockInfoData = type { %struct.LockRelId }
%struct.LockRelId = type { i32, i32 }
%struct.FormData_pg_largeobject_metadata = type { i32, i32 }

@.str.1 = private unnamed_addr constant [9 x i8] c"aclchk.c\00", align 1
@.str.172 = private unnamed_addr constant [31 x i8] c"large object %u does not exist\00", align 1
@__func__.pg_largeobject_aclmask_snapshot = private unnamed_addr constant [32 x i8] c"pg_largeobject_aclmask_snapshot\00", align 1

; Function Attrs: inlinehint nounwind uwtable
define internal ptr @DatumGetPointer(i64 noundef %0) #7 {
  %2 = alloca i64, align 8
  store i64 %0, ptr %2, align 8
  %3 = load i64, ptr %2, align 8
  %4 = inttoptr i64 %3 to ptr
  ret ptr %4
}

; Function Attrs: inlinehint nounwind uwtable
define internal ptr @GETSTRUCT(ptr noundef %0) #7 {
  %2 = alloca ptr, align 8
  store ptr %0, ptr %2, align 8
  %3 = load ptr, ptr %2, align 8
  %4 = getelementptr inbounds nuw %struct.HeapTupleData, ptr %3, i32 0, i32 3
  %5 = load ptr, ptr %4, align 8
  %6 = load ptr, ptr %2, align 8
  %7 = getelementptr inbounds nuw %struct.HeapTupleData, ptr %6, i32 0, i32 3
  %8 = load ptr, ptr %7, align 8
  %9 = getelementptr inbounds nuw %struct.HeapTupleHeaderData, ptr %8, i32 0, i32 4
  %10 = load i8, ptr %9, align 2
  %11 = zext i8 %10 to i32
  %12 = sext i32 %11 to i64
  %13 = getelementptr inbounds i8, ptr %5, i64 %12
  ret ptr %13
}

; Function Attrs: inlinehint nounwind uwtable
define internal i64 @ObjectIdGetDatum(i32 noundef %0) #7 {
  %2 = alloca i32, align 4
  store i32 %0, ptr %2, align 4
  %3 = load i32, ptr %2, align 4
  %4 = zext i32 %3 to i64
  ret i64 %4
}

; Function Attrs: nounwind uwtable
define internal i64 @pg_largeobject_aclmask_snapshot(i32 noundef %0, i32 noundef %1, i64 noundef %2, i32 noundef %3, ptr noundef %4) #0 {
  %6 = alloca i64, align 8
  %7 = alloca i32, align 4
  %8 = alloca i32, align 4
  %9 = alloca i64, align 8
  %10 = alloca i32, align 4
  %11 = alloca ptr, align 8
  %12 = alloca i64, align 8
  %13 = alloca ptr, align 8
  %14 = alloca [1 x %struct.ScanKeyData], align 16
  %15 = alloca ptr, align 8
  %16 = alloca ptr, align 8
  %17 = alloca i64, align 8
  %18 = alloca i8, align 1
  %19 = alloca ptr, align 8
  %20 = alloca i32, align 4
  %21 = alloca i32, align 4
  store i32 %0, ptr %7, align 4
  store i32 %1, ptr %8, align 4
  store i64 %2, ptr %9, align 8
  store i32 %3, ptr %10, align 4
  store ptr %4, ptr %11, align 8
  call void @llvm.lifetime.start.p0(i64 8, ptr %12) #9
  call void @llvm.lifetime.start.p0(i64 8, ptr %13) #9
  call void @llvm.lifetime.start.p0(i64 72, ptr %14) #9
  call void @llvm.lifetime.start.p0(i64 8, ptr %15) #9
  call void @llvm.lifetime.start.p0(i64 8, ptr %16) #9
  call void @llvm.lifetime.start.p0(i64 8, ptr %17) #9
  call void @llvm.lifetime.start.p0(i64 1, ptr %18) #9
  call void @llvm.lifetime.start.p0(i64 8, ptr %19) #9
  call void @llvm.lifetime.start.p0(i64 4, ptr %20) #9
  %22 = load i32, ptr %8, align 4
  %23 = call zeroext i1 @superuser_arg(i32 noundef %22)
  br i1 %23, label %24, label %26

24:                                               ; preds = %5
  %25 = load i64, ptr %9, align 8
  store i64 %25, ptr %6, align 8
  store i32 1, ptr %21, align 4
  br label %91

26:                                               ; preds = %5
  %27 = call ptr @table_open(i32 noundef 2995, i32 noundef 1)
  store ptr %27, ptr %13, align 8
  %28 = getelementptr inbounds [1 x %struct.ScanKeyData], ptr %14, i64 0, i64 0
  %29 = load i32, ptr %7, align 4
  %30 = call i64 @ObjectIdGetDatum(i32 noundef %29)
  call void @ScanKeyInit(ptr noundef %28, i16 noundef signext 1, i16 noundef zeroext 3, i32 noundef 184, i64 noundef %30)
  %31 = load ptr, ptr %13, align 8
  %32 = load ptr, ptr %11, align 8
  %33 = getelementptr inbounds [1 x %struct.ScanKeyData], ptr %14, i64 0, i64 0
  %34 = call ptr @systable_beginscan(ptr noundef %31, i32 noundef 2996, i1 noundef zeroext true, ptr noundef %32, i32 noundef 1, ptr noundef %33)
  store ptr %34, ptr %15, align 8
  %35 = load ptr, ptr %15, align 8
  %36 = call ptr @systable_getnext(ptr noundef %35)
  store ptr %36, ptr %16, align 8
  %37 = load ptr, ptr %16, align 8
  %38 = icmp ne ptr %37, null
  br i1 %38, label %52, label %39

39:                                               ; preds = %26
  br label %40

40:                                               ; preds = %39
  br i1 true, label %41, label %43

41:                                               ; preds = %40
  %42 = call zeroext i1 @errstart_cold(i32 noundef 21, ptr noundef null) #10
  br i1 %42, label %45, label %49

43:                                               ; preds = %40
  %44 = call zeroext i1 @errstart(i32 noundef 21, ptr noundef null)
  br i1 %44, label %45, label %49

45:                                               ; preds = %43, %41
  %46 = call i32 @errcode(i32 noundef 67137668)
  %47 = load i32, ptr %7, align 4
  %48 = call i32 (ptr, ...) @errmsg(ptr noundef @.str.172, i32 noundef %47)
  call void @errfinish(ptr noundef @.str.1, i32 noundef 3540, ptr noundef @__func__.pg_largeobject_aclmask_snapshot)
  br label %49

49:                                               ; preds = %45, %43, %41
  unreachable

50:                                               ; No predecessors!
  br label %51

51:                                               ; preds = %50
  br label %52

52:                                               ; preds = %51, %26
  %53 = load ptr, ptr %16, align 8
  %54 = call ptr @GETSTRUCT(ptr noundef %53)
  %55 = getelementptr inbounds nuw %struct.FormData_pg_largeobject_metadata, ptr %54, i32 0, i32 1
  %56 = load i32, ptr %55, align 4
  store i32 %56, ptr %20, align 4
  %57 = load ptr, ptr %16, align 8
  %58 = load ptr, ptr %13, align 8
  %59 = getelementptr inbounds nuw %struct.RelationData, ptr %58, i32 0, i32 14
  %60 = load ptr, ptr %59, align 8
  %61 = call i64 @heap_getattr(ptr noundef %57, i32 noundef 3, ptr noundef %60, ptr noundef %18)
  store i64 %61, ptr %17, align 8
  %62 = load i8, ptr %18, align 1, !range !4, !noundef !5
  %63 = trunc i8 %62 to i1
  br i1 %63, label %64, label %67

64:                                               ; preds = %52
  %65 = load i32, ptr %20, align 4
  %66 = call ptr @acldefault(i32 noundef 22, i32 noundef %65)
  store ptr %66, ptr %19, align 8
  store i64 0, ptr %17, align 8
  br label %71

67:                                               ; preds = %52
  %68 = load i64, ptr %17, align 8
  %69 = call ptr @DatumGetPointer(i64 noundef %68)
  %70 = call ptr @pg_detoast_datum(ptr noundef %69)
  store ptr %70, ptr %19, align 8
  br label %71

71:                                               ; preds = %67, %64
  %72 = load ptr, ptr %19, align 8
  %73 = load i32, ptr %8, align 4
  %74 = load i32, ptr %20, align 4
  %75 = load i64, ptr %9, align 8
  %76 = load i32, ptr %10, align 4
  %77 = call i64 @aclmask(ptr noundef %72, i32 noundef %73, i32 noundef %74, i64 noundef %75, i32 noundef %76)
  store i64 %77, ptr %12, align 8
  %78 = load ptr, ptr %19, align 8
  %79 = icmp ne ptr %78, null
  br i1 %79, label %80, label %87

80:                                               ; preds = %71
  %81 = load ptr, ptr %19, align 8
  %82 = load i64, ptr %17, align 8
  %83 = call ptr @DatumGetPointer(i64 noundef %82)
  %84 = icmp ne ptr %81, %83
  br i1 %84, label %85, label %87

85:                                               ; preds = %80
  %86 = load ptr, ptr %19, align 8
  call void @pfree(ptr noundef %86)
  br label %87

87:                                               ; preds = %85, %80, %71
  %88 = load ptr, ptr %15, align 8
  call void @systable_endscan(ptr noundef %88)
  %89 = load ptr, ptr %13, align 8
  call void @table_close(ptr noundef %89, i32 noundef 1)
  %90 = load i64, ptr %12, align 8
  store i64 %90, ptr %6, align 8
  store i32 1, ptr %21, align 4
  br label %91

91:                                               ; preds = %87, %24
  call void @llvm.lifetime.end.p0(i64 4, ptr %20) #9
  call void @llvm.lifetime.end.p0(i64 8, ptr %19) #9
  call void @llvm.lifetime.end.p0(i64 1, ptr %18) #9
  call void @llvm.lifetime.end.p0(i64 8, ptr %17) #9
  call void @llvm.lifetime.end.p0(i64 8, ptr %16) #9
  call void @llvm.lifetime.end.p0(i64 8, ptr %15) #9
  call void @llvm.lifetime.end.p0(i64 72, ptr %14) #9
  call void @llvm.lifetime.end.p0(i64 8, ptr %13) #9
  call void @llvm.lifetime.end.p0(i64 8, ptr %12) #9
  %92 = load i64, ptr %6, align 8
  ret i64 %92
}