; Function Attrs: nounwind uwtable
define internal fastcc i64 @pg_largeobject_aclmask_snapshot(i32 noundef %0, i32 noundef %1, i64 noundef %2, ptr noundef %3) unnamed_addr #0 {
  %5 = alloca [1 x %struct.ScanKeyData], align 16
  %6 = alloca i8, align 1
  call void @llvm.lifetime.start.p0(i64 72, ptr nonnull %5) #9
  call void @llvm.lifetime.start.p0(i64 1, ptr nonnull %6) #9
  %7 = tail call zeroext i1 @superuser_arg(i32 noundef %1) #9
  br i1 %7, label %39, label %8

8:                                                ; preds = %4
  %9 = tail call ptr @table_open(i32 noundef 2995, i32 noundef 1) #9
  %10 = zext i32 %0 to i64
  call void @ScanKeyInit(ptr noundef nonnull %5, i16 noundef signext 1, i16 noundef zeroext 3, i32 noundef 184, i64 noundef %10) #9
  %11 = call ptr @systable_beginscan(ptr noundef %9, i32 noundef 2996, i1 noundef zeroext true, ptr noundef %3, i32 noundef 1, ptr noundef nonnull %5) #9
  %12 = call ptr @systable_getnext(ptr noundef %11) #9
  %.not = icmp eq ptr %12, null
  br i1 %.not, label %13, label %17

13:                                               ; preds = %8
  %14 = call zeroext i1 @errstart_cold(i32 noundef 21, ptr noundef null) #10
  call void @llvm.assume(i1 %14)
  %15 = call i32 @errcode(i32 noundef 67137668) #9
  %16 = call i32 (ptr, ...) @errmsg(ptr noundef nonnull @.str.172, i32 noundef %0) #9
  call void @errfinish(ptr noundef nonnull @.str.1, i32 noundef 3540, ptr noundef nonnull @__func__.pg_largeobject_aclmask_snapshot) #9
  unreachable

17:                                               ; preds = %8
  %18 = getelementptr i8, ptr %12, i64 16
  %.val = load ptr, ptr %18, align 8
  %19 = getelementptr inbounds nuw i8, ptr %.val, i64 22
  %20 = load i8, ptr %19, align 2
  %21 = zext i8 %20 to i64
  %22 = getelementptr inbounds nuw i8, ptr %.val, i64 %21
  %23 = getelementptr inbounds nuw i8, ptr %22, i64 4
  %24 = load i32, ptr %23, align 4
  %25 = getelementptr inbounds nuw i8, ptr %9, i64 64
  %26 = load ptr, ptr %25, align 8
  %27 = call fastcc i64 @heap_getattr(ptr noundef %12, i32 noundef 3, ptr noundef %26, ptr noundef %6)
  %28 = load i8, ptr %6, align 1, !range !4, !noundef !5
  %29 = trunc nuw i8 %28 to i1
  br i1 %29, label %30, label %32

30:                                               ; preds = %17
  %31 = call ptr @acldefault(i32 noundef 22, i32 noundef %24) #9
  br label %35

32:                                               ; preds = %17
  %33 = inttoptr i64 %27 to ptr
  %34 = call ptr @pg_detoast_datum(ptr noundef %33) #9
  br label %35

35:                                               ; preds = %32, %30
  %.026 = phi ptr [ null, %30 ], [ %33, %32 ]
  %.025 = phi ptr [ %31, %30 ], [ %34, %32 ]
  %36 = call i64 @aclmask(ptr noundef %.025, i32 noundef %1, i32 noundef %24, i64 noundef %2, i32 noundef 1) #9
  %.not28 = icmp eq ptr %.025, null
  %.not29 = icmp eq ptr %.025, %.026
  %or.cond = or i1 %.not28, %.not29
  br i1 %or.cond, label %38, label %37

37:                                               ; preds = %35
  call void @pfree(ptr noundef nonnull %.025) #9
  br label %38

38:                                               ; preds = %37, %35
  call void @systable_endscan(ptr noundef %11) #9
  call void @table_close(ptr noundef nonnull %9, i32 noundef 1) #9
  br label %39

39:                                               ; preds = %4, %38
  %.0 = phi i64 [ %36, %38 ], [ %2, %4 ]
  call void @llvm.lifetime.end.p0(i64 1, ptr nonnull %6) #9
  call void @llvm.lifetime.end.p0(i64 72, ptr nonnull %5) #9
  ret i64 %.0
}